target datalayout = "e-m:e-p270:32:32-p271:32:32-p272:64:64-i64:64-i128:128-f80:128-n8:16:32:64-S128"
target triple = "x86_64-pc-linux-gnu"

%struct.Msat_Solver_t_ = type { i32, i32, ptr, ptr, double, double, ptr, ptr, double, double, ptr, ptr, ptr, i32, i32, ptr, ptr, ptr, ptr, ptr, ptr, i32, double, i32, double, ptr, ptr, ptr, ptr, i32, ptr, ptr, ptr, ptr, %struct.Msat_SolverStats_t_, i32, i32, i32, i32, i32, i32 }
%struct.Msat_SolverStats_t_ = type { i64, i64, i64, i64, i64, i64 }

@.str.1 = private unnamed_addr constant [2 x i8] c"-\00", align 1
@.str.2 = private unnamed_addr constant [1 x i8] zeroinitializer, align 1
@.str.3 = private unnamed_addr constant [17 x i8] c"%-*dbind(%s%d)  \00", align 1

; Function Attrs: nounwind uwtable
define i32 @Msat_SolverEnqueue(ptr noundef %0, i32 noundef %1, ptr noundef %2) #0 {
  %4 = alloca i32, align 4
  %5 = alloca ptr, align 8
  %6 = alloca i32, align 4
  %7 = alloca ptr, align 8
  %8 = alloca i32, align 4
  %9 = alloca i32, align 4
  store ptr %0, ptr %5, align 8, !tbaa !3
  store i32 %1, ptr %6, align 4, !tbaa !8
  store ptr %2, ptr %7, align 8, !tbaa !27
  call void @llvm.lifetime.start.p0(i64 4, ptr %8) #4
  %10 = load i32, ptr %6, align 4, !tbaa !8
  %11 = ashr i32 %10, 1
  store i32 %11, ptr %8, align 4, !tbaa !8
  %12 = load ptr, ptr %5, align 8, !tbaa !3
  %13 = getelementptr inbounds nuw %struct.Msat_Solver_t_, ptr %12, i32 0, i32 26
  %14 = load ptr, ptr %13, align 8, !tbaa !29
  %15 = load i32, ptr %8, align 4, !tbaa !8
  %16 = call i32 @Msat_IntVecReadEntry(ptr noundef %14, i32 noundef %15)
  %17 = icmp ne i32 %16, 0
  br i1 %17, label %19, label %18

18:                                               ; preds = %3
  store i32 1, ptr %4, align 4
  store i32 1, ptr %9, align 4
  br label %97

19:                                               ; preds = %3
  %20 = load ptr, ptr %5, align 8, !tbaa !3
  %21 = getelementptr inbounds nuw %struct.Msat_Solver_t_, ptr %20, i32 0, i32 15
  %22 = load ptr, ptr %21, align 8, !tbaa !30
  %23 = load i32, ptr %8, align 4, !tbaa !8
  %24 = sext i32 %23 to i64
  %25 = getelementptr inbounds i32, ptr %22, i64 %24
  %26 = load i32, ptr %25, align 4, !tbaa !8
  %27 = icmp ne i32 %26, -1
  br i1 %27, label %28, label %39

28:                                               ; preds = %19
  %29 = load ptr, ptr %5, align 8, !tbaa !3
  %30 = getelementptr inbounds nuw %struct.Msat_Solver_t_, ptr %29, i32 0, i32 15
  %31 = load ptr, ptr %30, align 8, !tbaa !30
  %32 = load i32, ptr %8, align 4, !tbaa !8
  %33 = sext i32 %32 to i64
  %34 = getelementptr inbounds i32, ptr %31, i64 %33
  %35 = load i32, ptr %34, align 4, !tbaa !8
  %36 = load i32, ptr %6, align 4, !tbaa !8
  %37 = icmp eq i32 %35, %36
  %38 = zext i1 %37 to i32
  store i32 %38, ptr %4, align 4
  store i32 1, ptr %9, align 4
  br label %97

39:                                               ; preds = %19
  %40 = load ptr, ptr %5, align 8, !tbaa !3
  %41 = getelementptr inbounds nuw %struct.Msat_Solver_t_, ptr %40, i32 0, i32 23
  %42 = load i32, ptr %41, align 8, !tbaa !10
  %43 = icmp ne i32 %42, 0
  br i1 %43, label %44, label %60

44:                                               ; preds = %39
  %45 = load ptr, ptr %5, align 8, !tbaa !3
  %46 = call i32 @Msat_SolverReadDecisionLevel(ptr noundef %45)
  %47 = mul nsw i32 %46, 3
  %48 = add nsw i32 %47, 3
  %49 = load ptr, ptr %5, align 8, !tbaa !3
  %50 = call i32 @Msat_SolverReadDecisionLevel(ptr noundef %49)
  %51 = load i32, ptr %6, align 4, !tbaa !8
  %52 = and i32 %51, 1
  %53 = icmp ne i32 %52, 0
  %54 = select i1 %53, ptr @.str.1, ptr @.str.2
  %55 = load i32, ptr %6, align 4, !tbaa !8
  %56 = ashr i32 %55, 1
  %57 = add nsw i32 %56, 1
  %58 = call i32 (ptr, ...) @printf(ptr noundef @.str.3, i32 noundef %48, i32 noundef %50, ptr noundef %54, i32 noundef %57)
  %59 = load ptr, ptr %7, align 8, !tbaa !27
  call void @Msat_ClausePrintSymbols(ptr noundef %59)
  br label %60

60:                                               ; preds = %44, %39
  %61 = load i32, ptr %6, align 4, !tbaa !8
  %62 = load ptr, ptr %5, align 8, !tbaa !3
  %63 = getelementptr inbounds nuw %struct.Msat_Solver_t_, ptr %62, i32 0, i32 15
  %64 = load ptr, ptr %63, align 8, !tbaa !30
  %65 = load i32, ptr %8, align 4, !tbaa !8
  %66 = sext i32 %65 to i64
  %67 = getelementptr inbounds i32, ptr %64, i64 %66
  store i32 %61, ptr %67, align 4, !tbaa !8
  %68 = load ptr, ptr %5, align 8, !tbaa !3
  %69 = getelementptr inbounds nuw %struct.Msat_Solver_t_, ptr %68, i32 0, i32 18
  %70 = load ptr, ptr %69, align 8, !tbaa !25
  %71 = call i32 @Msat_IntVecReadSize(ptr noundef %70)
  %72 = load ptr, ptr %5, align 8, !tbaa !3
  %73 = getelementptr inbounds nuw %struct.Msat_Solver_t_, ptr %72, i32 0, i32 20
  %74 = load ptr, ptr %73, align 8, !tbaa !31
  %75 = load i32, ptr %8, align 4, !tbaa !8
  %76 = sext i32 %75 to i64
  %77 = getelementptr inbounds i32, ptr %74, i64 %76
  store i32 %71, ptr %77, align 4, !tbaa !8
  %78 = load ptr, ptr %7, align 8, !tbaa !27
  %79 = load ptr, ptr %5, align 8, !tbaa !3
  %80 = getelementptr inbounds nuw %struct.Msat_Solver_t_, ptr %79, i32 0, i32 19
  %81 = load ptr, ptr %80, align 8, !tbaa !32
  %82 = load i32, ptr %8, align 4, !tbaa !8
  %83 = sext i32 %82 to i64
  %84 = getelementptr inbounds ptr, ptr %81, i64 %83
  store ptr %78, ptr %84, align 8, !tbaa !27
  %85 = load ptr, ptr %5, align 8, !tbaa !3
  %86 = getelementptr inbounds nuw %struct.Msat_Solver_t_, ptr %85, i32 0, i32 17
  %87 = load ptr, ptr %86, align 8, !tbaa !26
  %88 = load i32, ptr %6, align 4, !tbaa !8
  call void @Msat_IntVecPush(ptr noundef %87, i32 noundef %88)
  %89 = load ptr, ptr %5, align 8, !tbaa !3
  %90 = getelementptr inbounds nuw %struct.Msat_Solver_t_, ptr %89, i32 0, i32 12
  %91 = load ptr, ptr %90, align 8, !tbaa !33
  %92 = load i32, ptr %6, align 4, !tbaa !8
  call void @Msat_QueueInsert(ptr noundef %91, i32 noundef %92)
  %93 = load ptr, ptr %5, align 8, !tbaa !3
  %94 = getelementptr inbounds nuw %struct.Msat_Solver_t_, ptr %93, i32 0, i32 10
  %95 = load ptr, ptr %94, align 8, !tbaa !34
  %96 = load i32, ptr %8, align 4, !tbaa !8
  call void @Msat_OrderVarAssigned(ptr noundef %95, i32 noundef %96)
  store i32 1, ptr %4, align 4
  store i32 1, ptr %9, align 4
  br label %97

97:                                               ; preds = %60, %28, %18
  call void @llvm.lifetime.end.p0(i64 4, ptr %8) #4
  %98 = load i32, ptr %4, align 4
  ret i32 %98
}