; Function Attrs: nounwind uwtable
define range(i32 0, 2) i32 @Msat_SolverEnqueue(ptr noundef %0, i32 noundef %1, ptr noundef %2) local_unnamed_addr #0 {
  %4 = ashr i32 %1, 1
  %5 = getelementptr inbounds nuw i8, ptr %0, i64 192
  %6 = load ptr, ptr %5, align 8, !tbaa !24
  %7 = tail call i32 @Msat_IntVecReadEntry(ptr noundef %6, i32 noundef %4) #7
  %.not = icmp eq i32 %7, 0
  br i1 %.not, label %47, label %8

8:                                                ; preds = %3
  %9 = getelementptr inbounds nuw i8, ptr %0, i64 104
  %10 = load ptr, ptr %9, align 8, !tbaa !25
  %11 = sext i32 %4 to i64
  %12 = getelementptr inbounds i32, ptr %10, i64 %11
  %13 = load i32, ptr %12, align 4, !tbaa !26
  %.not30 = icmp eq i32 %13, -1
  br i1 %.not30, label %17, label %14

14:                                               ; preds = %8
  %15 = icmp eq i32 %13, %1
  %16 = zext i1 %15 to i32
  br label %47

17:                                               ; preds = %8
  %18 = getelementptr inbounds nuw i8, ptr %0, i64 168
  %19 = load i32, ptr %18, align 8, !tbaa !3
  %.not31 = icmp eq i32 %19, 0
  br i1 %.not31, label %29, label %20

20:                                               ; preds = %17
  %21 = tail call i32 @Msat_SolverReadDecisionLevel(ptr noundef nonnull %0) #7
  %22 = mul nsw i32 %21, 3
  %23 = add nsw i32 %22, 3
  %24 = tail call i32 @Msat_SolverReadDecisionLevel(ptr noundef nonnull %0) #7
  %25 = and i32 %1, 1
  %.not32 = icmp eq i32 %25, 0
  %26 = select i1 %.not32, ptr @.str.2, ptr @.str.1
  %27 = add nsw i32 %4, 1
  %28 = tail call i32 (ptr, ...) @printf(ptr noundef nonnull dereferenceable(1) @.str.3, i32 noundef %23, i32 noundef %24, ptr noundef nonnull %26, i32 noundef %27)
  tail call void @Msat_ClausePrintSymbols(ptr noundef %2) #7
  %.pre = load ptr, ptr %9, align 8, !tbaa !25
  br label %29

29:                                               ; preds = %20, %17
  %30 = phi ptr [ %.pre, %20 ], [ %10, %17 ]
  %31 = getelementptr inbounds i32, ptr %30, i64 %11
  store i32 %1, ptr %31, align 4, !tbaa !26
  %32 = getelementptr inbounds nuw i8, ptr %0, i64 128
  %33 = load ptr, ptr %32, align 8, !tbaa !22
  %34 = tail call i32 @Msat_IntVecReadSize(ptr noundef %33) #7
  %35 = getelementptr inbounds nuw i8, ptr %0, i64 144
  %36 = load ptr, ptr %35, align 8, !tbaa !27
  %37 = getelementptr inbounds i32, ptr %36, i64 %11
  store i32 %34, ptr %37, align 4, !tbaa !26
  %38 = getelementptr inbounds nuw i8, ptr %0, i64 136
  %39 = load ptr, ptr %38, align 8, !tbaa !28
  %40 = getelementptr inbounds ptr, ptr %39, i64 %11
  store ptr %2, ptr %40, align 8, !tbaa !29
  %41 = getelementptr inbounds nuw i8, ptr %0, i64 120
  %42 = load ptr, ptr %41, align 8, !tbaa !23
  tail call void @Msat_IntVecPush(ptr noundef %42, i32 noundef %1) #7
  %43 = getelementptr inbounds nuw i8, ptr %0, i64 88
  %44 = load ptr, ptr %43, align 8, !tbaa !31
  tail call void @Msat_QueueInsert(ptr noundef %44, i32 noundef %1) #7
  %45 = getelementptr inbounds nuw i8, ptr %0, i64 72
  %46 = load ptr, ptr %45, align 8, !tbaa !32
  tail call void @Msat_OrderVarAssigned(ptr noundef %46, i32 noundef %4) #7
  br label %47

47:                                               ; preds = %3, %29, %14
  %.0 = phi i32 [ %16, %14 ], [ 1, %29 ], [ 1, %3 ]
  ret i32 %.0
}